target datalayout = "e-m:e-p270:32:32-p271:32:32-p272:64:64-i64:64-i128:128-f80:128-n8:16:32:64-S128"
target triple = "x86_64-pc-linux-gnu"

%struct.QArrayData = type { %"class.QtPrivate::RefCount", i32, i32, i64 }
%"class.QtPrivate::RefCount" = type { %class.QBasicAtomicInteger }
%class.QBasicAtomicInteger = type { %"struct.std::atomic" }
%"struct.std::atomic" = type { %"struct.std::__atomic_base" }
%"struct.std::__atomic_base" = type { i32 }
%"struct.std::__detail::_List_node_header" = type { %"struct.std::__detail::_List_node_base", i64 }
%"struct.std::__detail::_List_node_base" = type { ptr, ptr }
%class.QString = type { ptr }
%class.RichParameterList = type { %"class.std::__cxx11::list.46" }
%"class.std::__cxx11::list.46" = type { %"class.std::__cxx11::_List_base.47" }
%"class.std::__cxx11::_List_base.47" = type { %"struct.std::__cxx11::_List_base<RichParameter *, std::allocator<RichParameter *>>::_List_impl" }
%"struct.std::__cxx11::_List_base<RichParameter *, std::allocator<RichParameter *>>::_List_impl" = type { %"struct.std::__detail::_List_node_header" }

@.str.9 = private unnamed_addr constant [4 x i8] c"NXS\00", align 1
@.str.11 = private unnamed_addr constant [4 x i8] c"NXZ\00", align 1

; Function Attrs: mustprogress nounwind uwtable
define linkonce_odr noundef ptr @_ZN10QArrayData4dataEv(ptr noundef nonnull align 8 dereferenceable(24) %0) #4 comdat align 2 {
  %2 = alloca ptr, align 8
  store ptr %0, ptr %2, align 8
  %3 = load ptr, ptr %2, align 8
  %4 = getelementptr inbounds %struct.QArrayData, ptr %3, i32 0, i32 3
  %5 = load i64, ptr %4, align 8
  %6 = getelementptr inbounds i8, ptr %3, i64 %5
  ret ptr %6
}

; Function Attrs: mustprogress uwtable
define linkonce_odr noundef ptr @_ZN15QTypedArrayDataItE4dataEv(ptr noundef nonnull align 8 dereferenceable(24) %0) #5 comdat align 2 {
  %2 = alloca ptr, align 8
  store ptr %0, ptr %2, align 8
  %3 = load ptr, ptr %2, align 8
  %4 = call noundef ptr @_ZN10QArrayData4dataEv(ptr noundef nonnull align 8 dereferenceable(24) %3)
  ret ptr %4
}

; Function Attrs: mustprogress nounwind uwtable
define linkonce_odr noundef i32 @_ZNK7QString4sizeEv(ptr noundef nonnull align 8 dereferenceable(8) %0) #4 comdat align 2 {
  %2 = alloca ptr, align 8
  store ptr %0, ptr %2, align 8
  %3 = load ptr, ptr %2, align 8
  %4 = getelementptr inbounds %class.QString, ptr %3, i32 0, i32 0
  %5 = load ptr, ptr %4, align 8
  %6 = getelementptr inbounds %struct.QArrayData, ptr %5, i32 0, i32 1
  %7 = load i32, ptr %6, align 4
  ret i32 %7
}

; Function Attrs: mustprogress uwtable
define linkonce_odr noundef ptr @_ZNK7QString9constDataEv(ptr noundef nonnull align 8 dereferenceable(8) %0) #5 comdat align 2 {
  %2 = alloca ptr, align 8
  store ptr %0, ptr %2, align 8
  %3 = load ptr, ptr %2, align 8
  %4 = getelementptr inbounds %class.QString, ptr %3, i32 0, i32 0
  %5 = load ptr, ptr %4, align 8
  %6 = call noundef ptr @_ZN15QTypedArrayDataItE4dataEv(ptr noundef nonnull align 8 dereferenceable(24) %5)
  ret ptr %6
}

; Function Attrs: mustprogress uwtable
define linkonce_odr noundef zeroext i1 @_ZNK7QStringeqEPKc(ptr noundef nonnull align 8 dereferenceable(8) %0, ptr noundef %1) #5 comdat align 2 {
  %3 = alloca ptr, align 8
  %4 = alloca ptr, align 8
  store ptr %0, ptr %3, align 8
  store ptr %1, ptr %4, align 8
  %5 = load ptr, ptr %3, align 8
  %6 = call noundef ptr @_ZNK7QString9constDataEv(ptr noundef nonnull align 8 dereferenceable(8) %5)
  %7 = call noundef i32 @_ZNK7QString4sizeEv(ptr noundef nonnull align 8 dereferenceable(8) %5)
  %8 = load ptr, ptr %4, align 8
  %9 = call noundef i32 @_ZN7QString14compare_helperEPK5QChariPKciN2Qt15CaseSensitivityE(ptr noundef %6, i32 noundef %7, ptr noundef %8, i32 noundef -1, i32 noundef 1)
  %10 = icmp eq i32 %9, 0
  ret i1 %10
}

; Function Attrs: mustprogress uwtable
define linkonce_odr void @_ZNKR7QString7toUpperEv(ptr dead_on_unwind noalias writable sret(%class.QString) align 8 %0, ptr noundef nonnull align 8 dereferenceable(8) %1) #5 comdat align 2 {
  %3 = alloca ptr, align 8
  %4 = alloca ptr, align 8
  store ptr %0, ptr %3, align 8
  store ptr %1, ptr %4, align 8
  %5 = load ptr, ptr %4, align 8
  call void @_ZN7QString14toUpper_helperERKS_(ptr dead_on_unwind writable sret(%class.QString) align 8 %0, ptr noundef nonnull align 8 dereferenceable(8) %5)
  ret void
}

; Function Attrs: mustprogress uwtable
define void @_ZNK17FilterIONXSPlugin17initSaveParameterERK7QStringRK9MeshModel(ptr dead_on_unwind noalias writable sret(%class.RichParameterList) align 8 %0, ptr noundef nonnull align 8 dereferenceable(96) %1, ptr noundef nonnull align 8 dereferenceable(8) %2, ptr noundef nonnull align 8 dereferenceable(1288) %3) unnamed_addr #5 align 2 personality ptr @__gxx_personality_v0 {
  %5 = alloca ptr, align 8
  %6 = alloca ptr, align 8
  %7 = alloca ptr, align 8
  %8 = alloca ptr, align 8
  %9 = alloca i1, align 1
  %10 = alloca %class.QString, align 8
  %11 = alloca ptr, align 8
  %12 = alloca i32, align 4
  %13 = alloca %class.QString, align 8
  %14 = alloca i1, align 1
  %15 = alloca %class.RichParameterList, align 8
  %16 = alloca %class.QString, align 8
  %17 = alloca %class.RichParameterList, align 8
  store ptr %0, ptr %5, align 8
  store ptr %1, ptr %6, align 8
  store ptr %2, ptr %7, align 8
  store ptr %3, ptr %8, align 8
  %18 = load ptr, ptr %6, align 8
  store i1 false, ptr %9, align 1
  call void @_ZN17RichParameterListC1Ev(ptr noundef nonnull align 8 dereferenceable(24) %0)
  %19 = load ptr, ptr %7, align 8
  store i1 false, ptr %14, align 1
  invoke void @_ZNKR7QString7toUpperEv(ptr dead_on_unwind writable sret(%class.QString) align 8 %10, ptr noundef nonnull align 8 dereferenceable(8) %19)
          to label %20 unwind label %37

20:                                               ; preds = %4
  %21 = invoke noundef zeroext i1 @_ZNK7QStringeqEPKc(ptr noundef nonnull align 8 dereferenceable(8) %10, ptr noundef @.str.9)
          to label %22 unwind label %41

22:                                               ; preds = %20
  br i1 %21, label %28, label %23

23:                                               ; preds = %22
  %24 = load ptr, ptr %7, align 8
  invoke void @_ZNKR7QString7toUpperEv(ptr dead_on_unwind writable sret(%class.QString) align 8 %13, ptr noundef nonnull align 8 dereferenceable(8) %24)
          to label %25 unwind label %41

25:                                               ; preds = %23
  store i1 true, ptr %14, align 1
  %26 = invoke noundef zeroext i1 @_ZNK7QStringeqEPKc(ptr noundef nonnull align 8 dereferenceable(8) %13, ptr noundef @.str.11)
          to label %27 unwind label %45

27:                                               ; preds = %25
  br label %28

28:                                               ; preds = %27, %22
  %29 = phi i1 [ true, %22 ], [ %26, %27 ]
  %30 = load i1, ptr %14, align 1
  br i1 %30, label %31, label %32

31:                                               ; preds = %28
  call void @_ZN7QStringD2Ev(ptr noundef nonnull align 8 dereferenceable(8) %13) #3
  br label %32

32:                                               ; preds = %31, %28
  call void @_ZN7QStringD2Ev(ptr noundef nonnull align 8 dereferenceable(8) %10) #3
  br i1 %29, label %33, label %57

33:                                               ; preds = %32
  invoke void @_ZNK17FilterIONXSPlugin13nxsParametersEv(ptr dead_on_unwind writable sret(%class.RichParameterList) align 8 %15, ptr noundef nonnull align 8 dereferenceable(96) %18)
          to label %34 unwind label %37

34:                                               ; preds = %33
  %35 = invoke noundef nonnull align 8 dereferenceable(24) ptr @_ZN17RichParameterListaSES_(ptr noundef nonnull align 8 dereferenceable(24) %0, ptr noundef %15)
          to label %36 unwind label %53

36:                                               ; preds = %34
  call void @_ZN17RichParameterListD1Ev(ptr noundef nonnull align 8 dereferenceable(24) %15) #3
  br label %57

37:                                               ; preds = %62, %57, %33, %4
  %38 = landingpad { ptr, i32 }
          cleanup
  %39 = extractvalue { ptr, i32 } %38, 0
  store ptr %39, ptr %11, align 8
  %40 = extractvalue { ptr, i32 } %38, 1
  store i32 %40, ptr %12, align 4
  br label %77

41:                                               ; preds = %23, %20
  %42 = landingpad { ptr, i32 }
          cleanup
  %43 = extractvalue { ptr, i32 } %42, 0
  store ptr %43, ptr %11, align 8
  %44 = extractvalue { ptr, i32 } %42, 1
  store i32 %44, ptr %12, align 4
  br label %52

45:                                               ; preds = %25
  %46 = landingpad { ptr, i32 }
          cleanup
  %47 = extractvalue { ptr, i32 } %46, 0
  store ptr %47, ptr %11, align 8
  %48 = extractvalue { ptr, i32 } %46, 1
  store i32 %48, ptr %12, align 4
  %49 = load i1, ptr %14, align 1
  br i1 %49, label %50, label %51

50:                                               ; preds = %45
  call void @_ZN7QStringD2Ev(ptr noundef nonnull align 8 dereferenceable(8) %13) #3
  br label %51

51:                                               ; preds = %50, %45
  br label %52

52:                                               ; preds = %51, %41
  call void @_ZN7QStringD2Ev(ptr noundef nonnull align 8 dereferenceable(8) %10) #3
  br label %77

53:                                               ; preds = %34
  %54 = landingpad { ptr, i32 }
          cleanup
  %55 = extractvalue { ptr, i32 } %54, 0
  store ptr %55, ptr %11, align 8
  %56 = extractvalue { ptr, i32 } %54, 1
  store i32 %56, ptr %12, align 4
  call void @_ZN17RichParameterListD1Ev(ptr noundef nonnull align 8 dereferenceable(24) %15) #3
  br label %77

57:                                               ; preds = %36, %32
  %58 = load ptr, ptr %7, align 8
  invoke void @_ZNKR7QString7toUpperEv(ptr dead_on_unwind writable sret(%class.QString) align 8 %16, ptr noundef nonnull align 8 dereferenceable(8) %58)
          to label %59 unwind label %37

59:                                               ; preds = %57
  %60 = invoke noundef zeroext i1 @_ZNK7QStringeqEPKc(ptr noundef nonnull align 8 dereferenceable(8) %16, ptr noundef @.str.11)
          to label %61 unwind label %65

61:                                               ; preds = %59
  call void @_ZN7QStringD2Ev(ptr noundef nonnull align 8 dereferenceable(8) %16) #3
  br i1 %60, label %62, label %73

62:                                               ; preds = %61
  invoke void @_ZNK17FilterIONXSPlugin13nxzParametersEb(ptr dead_on_unwind writable sret(%class.RichParameterList) align 8 %17, ptr noundef nonnull align 8 dereferenceable(96) %18, i1 noundef zeroext true)
          to label %63 unwind label %37

63:                                               ; preds = %62
  invoke void @_ZN17RichParameterList4joinERKS_(ptr noundef nonnull align 8 dereferenceable(24) %0, ptr noundef nonnull align 8 dereferenceable(24) %17)
          to label %64 unwind label %69

64:                                               ; preds = %63
  call void @_ZN17RichParameterListD1Ev(ptr noundef nonnull align 8 dereferenceable(24) %17) #3
  br label %73

65:                                               ; preds = %59
  %66 = landingpad { ptr, i32 }
          cleanup
  %67 = extractvalue { ptr, i32 } %66, 0
  store ptr %67, ptr %11, align 8
  %68 = extractvalue { ptr, i32 } %66, 1
  store i32 %68, ptr %12, align 4
  call void @_ZN7QStringD2Ev(ptr noundef nonnull align 8 dereferenceable(8) %16) #3
  br label %77

69:                                               ; preds = %63
  %70 = landingpad { ptr, i32 }
          cleanup
  %71 = extractvalue { ptr, i32 } %70, 0
  store ptr %71, ptr %11, align 8
  %72 = extractvalue { ptr, i32 } %70, 1
  store i32 %72, ptr %12, align 4
  call void @_ZN17RichParameterListD1Ev(ptr noundef nonnull align 8 dereferenceable(24) %17) #3
  br label %77

73:                                               ; preds = %64, %61
  store i1 true, ptr %9, align 1
  %74 = load i1, ptr %9, align 1
  br i1 %74, label %76, label %75

75:                                               ; preds = %73
  call void @_ZN17RichParameterListD1Ev(ptr noundef nonnull align 8 dereferenceable(24) %0) #3
  br label %76

76:                                               ; preds = %75, %73
  ret void

77:                                               ; preds = %69, %65, %53, %52, %37
  call void @_ZN17RichParameterListD1Ev(ptr noundef nonnull align 8 dereferenceable(24) %0) #3
  br label %78

78:                                               ; preds = %77
  %79 = load ptr, ptr %11, align 8
  %80 = load i32, ptr %12, align 4
  %81 = insertvalue { ptr, i32 } poison, ptr %79, 0
  %82 = insertvalue { ptr, i32 } %81, i32 %80, 1
  resume { ptr, i32 } %82
}