; Function Attrs: mustprogress uwtable
define void @_ZNK17FilterIONXSPlugin17initSaveParameterERK7QStringRK9MeshModel(ptr dead_on_unwind noalias nonnull writable sret(%class.RichParameterList) align 8 %0, ptr nocapture noundef nonnull readnone align 8 dereferenceable(96) %1, ptr noundef nonnull align 8 dereferenceable(8) %2, ptr nocapture nonnull readnone align 8 %3) unnamed_addr #9 align 2 personality ptr @__gxx_personality_v0 {
  %5 = alloca %class.QString, align 8
  %6 = alloca %class.QString, align 8
  %7 = alloca %class.RichParameterList, align 8
  %8 = alloca %class.QString, align 8
  %9 = alloca %class.RichParameterList, align 8
  tail call void @_ZN17RichParameterListC1Ev(ptr noundef nonnull align 8 dereferenceable(24) %0)
  invoke void @_ZN7QString14toUpper_helperERKS_(ptr dead_on_unwind nonnull writable sret(%class.QString) align 8 %5, ptr noundef nonnull align 8 dereferenceable(8) %2)
          to label %_ZNKR7QString7toUpperEv.exit unwind label %42

_ZNKR7QString7toUpperEv.exit:                     ; preds = %4
  %10 = load ptr, ptr %5, align 8
  %11 = getelementptr inbounds i8, ptr %10, i64 16
  %12 = load i64, ptr %11, align 8
  %13 = getelementptr inbounds i8, ptr %10, i64 %12
  %14 = getelementptr inbounds i8, ptr %10, i64 4
  %15 = load i32, ptr %14, align 4
  %16 = invoke noundef i32 @_ZN7QString14compare_helperEPK5QChariPKciN2Qt15CaseSensitivityE(ptr noundef nonnull %13, i32 noundef %15, ptr noundef nonnull @.str.9, i32 noundef -1, i32 noundef 1)
          to label %17 unwind label %44

17:                                               ; preds = %_ZNKR7QString7toUpperEv.exit
  %18 = icmp eq i32 %16, 0
  br i1 %18, label %_ZN7QStringD2Ev.exit, label %19

19:                                               ; preds = %17
  invoke void @_ZN7QString14toUpper_helperERKS_(ptr dead_on_unwind nonnull writable sret(%class.QString) align 8 %6, ptr noundef nonnull align 8 dereferenceable(8) %2)
          to label %_ZNKR7QString7toUpperEv.exit14 unwind label %44

_ZNKR7QString7toUpperEv.exit14:                   ; preds = %19
  %20 = load ptr, ptr %6, align 8
  %21 = getelementptr inbounds i8, ptr %20, i64 16
  %22 = load i64, ptr %21, align 8
  %23 = getelementptr inbounds i8, ptr %20, i64 %22
  %24 = getelementptr inbounds i8, ptr %20, i64 4
  %25 = load i32, ptr %24, align 4
  %26 = invoke noundef i32 @_ZN7QString14compare_helperEPK5QChariPKciN2Qt15CaseSensitivityE(ptr noundef nonnull %23, i32 noundef %25, ptr noundef nonnull @.str.11, i32 noundef -1, i32 noundef 1)
          to label %27 unwind label %46

27:                                               ; preds = %_ZNKR7QString7toUpperEv.exit14
  %28 = icmp eq i32 %26, 0
  %29 = load ptr, ptr %6, align 8
  %30 = load atomic i32, ptr %29 monotonic, align 4
  switch i32 %30, label %_ZN9QtPrivate8RefCount5derefEv.exit.i [
    i32 0, label %_ZN9QtPrivate8RefCount5derefEv.exit.thread2.i
    i32 -1, label %_ZN7QStringD2Ev.exit
  ]

_ZN9QtPrivate8RefCount5derefEv.exit.i:            ; preds = %27
  %31 = atomicrmw sub ptr %29, i32 1 seq_cst, align 4
  %.not.i = icmp eq i32 %31, 1
  br i1 %.not.i, label %_ZN9QtPrivate8RefCount5derefEv.exit._ZN9QtPrivate8RefCount5derefEv.exit.thread2_crit_edge.i, label %_ZN7QStringD2Ev.exit

_ZN9QtPrivate8RefCount5derefEv.exit._ZN9QtPrivate8RefCount5derefEv.exit.thread2_crit_edge.i: ; preds = %_ZN9QtPrivate8RefCount5derefEv.exit.i
  %.pre.i = load ptr, ptr %6, align 8
  br label %_ZN9QtPrivate8RefCount5derefEv.exit.thread2.i

_ZN9QtPrivate8RefCount5derefEv.exit.thread2.i:    ; preds = %_ZN9QtPrivate8RefCount5derefEv.exit._ZN9QtPrivate8RefCount5derefEv.exit.thread2_crit_edge.i, %27
  %32 = phi ptr [ %.pre.i, %_ZN9QtPrivate8RefCount5derefEv.exit._ZN9QtPrivate8RefCount5derefEv.exit.thread2_crit_edge.i ], [ %29, %27 ]
  call void @_ZN10QArrayData10deallocateEPS_mm(ptr noundef %32, i64 noundef 2, i64 noundef 8) #26
  br label %_ZN7QStringD2Ev.exit

_ZN7QStringD2Ev.exit:                             ; preds = %17, %_ZN9QtPrivate8RefCount5derefEv.exit.thread2.i, %_ZN9QtPrivate8RefCount5derefEv.exit.i, %27
  %33 = phi i1 [ %28, %27 ], [ %28, %_ZN9QtPrivate8RefCount5derefEv.exit.i ], [ %28, %_ZN9QtPrivate8RefCount5derefEv.exit.thread2.i ], [ true, %17 ]
  %34 = load ptr, ptr %5, align 8
  %35 = load atomic i32, ptr %34 monotonic, align 4
  switch i32 %35, label %_ZN9QtPrivate8RefCount5derefEv.exit.i17 [
    i32 0, label %_ZN9QtPrivate8RefCount5derefEv.exit.thread2.i16
    i32 -1, label %_ZN7QStringD2Ev.exit21
  ]

_ZN9QtPrivate8RefCount5derefEv.exit.i17:          ; preds = %_ZN7QStringD2Ev.exit
  %36 = atomicrmw sub ptr %34, i32 1 seq_cst, align 4
  %.not.i18 = icmp eq i32 %36, 1
  br i1 %.not.i18, label %_ZN9QtPrivate8RefCount5derefEv.exit._ZN9QtPrivate8RefCount5derefEv.exit.thread2_crit_edge.i19, label %_ZN7QStringD2Ev.exit21

_ZN9QtPrivate8RefCount5derefEv.exit._ZN9QtPrivate8RefCount5derefEv.exit.thread2_crit_edge.i19: ; preds = %_ZN9QtPrivate8RefCount5derefEv.exit.i17
  %.pre.i20 = load ptr, ptr %5, align 8
  br label %_ZN9QtPrivate8RefCount5derefEv.exit.thread2.i16

_ZN9QtPrivate8RefCount5derefEv.exit.thread2.i16:  ; preds = %_ZN9QtPrivate8RefCount5derefEv.exit._ZN9QtPrivate8RefCount5derefEv.exit.thread2_crit_edge.i19, %_ZN7QStringD2Ev.exit
  %37 = phi ptr [ %.pre.i20, %_ZN9QtPrivate8RefCount5derefEv.exit._ZN9QtPrivate8RefCount5derefEv.exit.thread2_crit_edge.i19 ], [ %34, %_ZN7QStringD2Ev.exit ]
  call void @_ZN10QArrayData10deallocateEPS_mm(ptr noundef %37, i64 noundef 2, i64 noundef 8) #26
  br label %_ZN7QStringD2Ev.exit21

_ZN7QStringD2Ev.exit21:                           ; preds = %_ZN7QStringD2Ev.exit, %_ZN9QtPrivate8RefCount5derefEv.exit.i17, %_ZN9QtPrivate8RefCount5derefEv.exit.thread2.i16
  br i1 %33, label %38, label %51

38:                                               ; preds = %_ZN7QStringD2Ev.exit21
  invoke void @_ZNK17FilterIONXSPlugin13nxsParametersEv(ptr dead_on_unwind nonnull writable sret(%class.RichParameterList) align 8 %7, ptr nonnull align 8 poison)
          to label %39 unwind label %42

39:                                               ; preds = %38
  %40 = invoke noundef nonnull align 8 dereferenceable(24) ptr @_ZN17RichParameterListaSES_(ptr noundef nonnull align 8 dereferenceable(24) %0, ptr noundef nonnull %7)
          to label %41 unwind label %49

41:                                               ; preds = %39
  call void @_ZN17RichParameterListD1Ev(ptr noundef nonnull align 8 dereferenceable(24) %7) #26
  br label %51

42:                                               ; preds = %51, %4, %65, %38
  %43 = landingpad { ptr, i32 }
          cleanup
  br label %73

44:                                               ; preds = %19, %_ZNKR7QString7toUpperEv.exit
  %45 = landingpad { ptr, i32 }
          cleanup
  br label %48

46:                                               ; preds = %_ZNKR7QString7toUpperEv.exit14
  %47 = landingpad { ptr, i32 }
          cleanup
  call void @_ZN7QStringD2Ev(ptr noundef nonnull align 8 dereferenceable(8) %6) #26
  br label %48

48:                                               ; preds = %46, %44
  %.pn = phi { ptr, i32 } [ %47, %46 ], [ %45, %44 ]
  call void @_ZN7QStringD2Ev(ptr noundef nonnull align 8 dereferenceable(8) %5) #26
  br label %73

49:                                               ; preds = %39
  %50 = landingpad { ptr, i32 }
          cleanup
  call void @_ZN17RichParameterListD1Ev(ptr noundef nonnull align 8 dereferenceable(24) %7) #26
  br label %73

51:                                               ; preds = %41, %_ZN7QStringD2Ev.exit21
  invoke void @_ZN7QString14toUpper_helperERKS_(ptr dead_on_unwind nonnull writable sret(%class.QString) align 8 %8, ptr noundef nonnull align 8 dereferenceable(8) %2)
          to label %_ZNKR7QString7toUpperEv.exit22 unwind label %42

_ZNKR7QString7toUpperEv.exit22:                   ; preds = %51
  %52 = load ptr, ptr %8, align 8
  %53 = getelementptr inbounds i8, ptr %52, i64 16
  %54 = load i64, ptr %53, align 8
  %55 = getelementptr inbounds i8, ptr %52, i64 %54
  %56 = getelementptr inbounds i8, ptr %52, i64 4
  %57 = load i32, ptr %56, align 4
  %58 = invoke noundef i32 @_ZN7QString14compare_helperEPK5QChariPKciN2Qt15CaseSensitivityE(ptr noundef nonnull %55, i32 noundef %57, ptr noundef nonnull @.str.11, i32 noundef -1, i32 noundef 1)
          to label %59 unwind label %68

59:                                               ; preds = %_ZNKR7QString7toUpperEv.exit22
  %60 = icmp eq i32 %58, 0
  %61 = load ptr, ptr %8, align 8
  %62 = load atomic i32, ptr %61 monotonic, align 4
  switch i32 %62, label %_ZN9QtPrivate8RefCount5derefEv.exit.i25 [
    i32 0, label %_ZN9QtPrivate8RefCount5derefEv.exit.thread2.i24
    i32 -1, label %_ZN7QStringD2Ev.exit29
  ]

_ZN9QtPrivate8RefCount5derefEv.exit.i25:          ; preds = %59
  %63 = atomicrmw sub ptr %61, i32 1 seq_cst, align 4
  %.not.i26 = icmp eq i32 %63, 1
  br i1 %.not.i26, label %_ZN9QtPrivate8RefCount5derefEv.exit._ZN9QtPrivate8RefCount5derefEv.exit.thread2_crit_edge.i27, label %_ZN7QStringD2Ev.exit29

_ZN9QtPrivate8RefCount5derefEv.exit._ZN9QtPrivate8RefCount5derefEv.exit.thread2_crit_edge.i27: ; preds = %_ZN9QtPrivate8RefCount5derefEv.exit.i25
  %.pre.i28 = load ptr, ptr %8, align 8
  br label %_ZN9QtPrivate8RefCount5derefEv.exit.thread2.i24

_ZN9QtPrivate8RefCount5derefEv.exit.thread2.i24:  ; preds = %_ZN9QtPrivate8RefCount5derefEv.exit._ZN9QtPrivate8RefCount5derefEv.exit.thread2_crit_edge.i27, %59
  %64 = phi ptr [ %.pre.i28, %_ZN9QtPrivate8RefCount5derefEv.exit._ZN9QtPrivate8RefCount5derefEv.exit.thread2_crit_edge.i27 ], [ %61, %59 ]
  call void @_ZN10QArrayData10deallocateEPS_mm(ptr noundef %64, i64 noundef 2, i64 noundef 8) #26
  br label %_ZN7QStringD2Ev.exit29

_ZN7QStringD2Ev.exit29:                           ; preds = %59, %_ZN9QtPrivate8RefCount5derefEv.exit.i25, %_ZN9QtPrivate8RefCount5derefEv.exit.thread2.i24
  br i1 %60, label %65, label %72

65:                                               ; preds = %_ZN7QStringD2Ev.exit29
  invoke void @_ZNK17FilterIONXSPlugin13nxzParametersEb(ptr dead_on_unwind nonnull writable sret(%class.RichParameterList) align 8 %9, ptr nonnull align 8 poison, i1 noundef zeroext true)
          to label %66 unwind label %42

66:                                               ; preds = %65
  invoke void @_ZN17RichParameterList4joinERKS_(ptr noundef nonnull align 8 dereferenceable(24) %0, ptr noundef nonnull align 8 dereferenceable(24) %9)
          to label %67 unwind label %70

67:                                               ; preds = %66
  call void @_ZN17RichParameterListD1Ev(ptr noundef nonnull align 8 dereferenceable(24) %9) #26
  br label %72

68:                                               ; preds = %_ZNKR7QString7toUpperEv.exit22
  %69 = landingpad { ptr, i32 }
          cleanup
  call void @_ZN7QStringD2Ev(ptr noundef nonnull align 8 dereferenceable(8) %8) #26
  br label %73

70:                                               ; preds = %66
  %71 = landingpad { ptr, i32 }
          cleanup
  call void @_ZN17RichParameterListD1Ev(ptr noundef nonnull align 8 dereferenceable(24) %9) #26
  br label %73

72:                                               ; preds = %_ZN7QStringD2Ev.exit29, %67
  ret void

73:                                               ; preds = %70, %68, %49, %48, %42
  %.pn12 = phi { ptr, i32 } [ %71, %70 ], [ %43, %42 ], [ %69, %68 ], [ %50, %49 ], [ %.pn, %48 ]
  call void @_ZN17RichParameterListD1Ev(ptr noundef nonnull align 8 dereferenceable(24) %0) #26
  resume { ptr, i32 } %.pn12
}